; Function Attrs: mustprogress uwtable
define void @_ZN6LibRaw13get_timestampEi(ptr noundef nonnull align 8 captures(none) dereferenceable(767680) %0, i32 noundef %1) local_unnamed_addr #0 align 2 {
  %3 = alloca %struct.tm, align 8
  %4 = alloca [20 x i8], align 16
  call void @llvm.lifetime.start.p0(i64 56, ptr nonnull %3) #13
  call void @llvm.lifetime.start.p0(i64 20, ptr nonnull %4) #13
  %5 = getelementptr inbounds nuw i8, ptr %4, i64 19
  store i8 0, ptr %5, align 1, !tbaa !75
  %.not = icmp eq i32 %1, 0
  %6 = getelementptr inbounds nuw i8, ptr %0, i64 381416
  br i1 %.not, label %14, label %.preheader

.preheader:                                       ; preds = %2, %.preheader
  %indvars.iv = phi i64 [ %indvars.iv.next, %.preheader ], [ 19, %2 ]
  %indvars.iv.next = add nsw i64 %indvars.iv, -1
  %7 = load ptr, ptr %6, align 8, !tbaa !6
  %8 = load ptr, ptr %7, align 8, !tbaa !71
  %9 = getelementptr inbounds nuw i8, ptr %8, i64 56
  %10 = load ptr, ptr %9, align 8
  %11 = tail call noundef i32 %10(ptr noundef nonnull align 8 dereferenceable(8) %7)
  %12 = trunc i32 %11 to i8
  %13 = getelementptr inbounds [20 x i8], ptr %4, i64 0, i64 %indvars.iv.next
  store i8 %12, ptr %13, align 1, !tbaa !75
  %.not3 = icmp eq i64 %indvars.iv.next, 0
  br i1 %.not3, label %.loopexit, label %.preheader, !llvm.loop !109

14:                                               ; preds = %2
  %15 = load ptr, ptr %6, align 8, !tbaa !6
  %16 = load ptr, ptr %15, align 8, !tbaa !71
  %17 = getelementptr inbounds nuw i8, ptr %16, i64 24
  %18 = load ptr, ptr %17, align 8
  %19 = call noundef i32 %18(ptr noundef nonnull align 8 dereferenceable(8) %15, ptr noundef nonnull %4, i64 noundef 19, i64 noundef 1)
  br label %.loopexit

.loopexit:                                        ; preds = %.preheader, %14
  call void @llvm.memset.p0.i64(ptr noundef nonnull align 8 dereferenceable(56) %3, i8 0, i64 56, i1 false)
  %20 = getelementptr inbounds nuw i8, ptr %3, i64 20
  %21 = getelementptr inbounds nuw i8, ptr %3, i64 16
  %22 = getelementptr inbounds nuw i8, ptr %3, i64 12
  %23 = getelementptr inbounds nuw i8, ptr %3, i64 8
  %24 = getelementptr inbounds nuw i8, ptr %3, i64 4
  %25 = call i32 (ptr, ptr, ...) @__isoc99_sscanf(ptr noundef nonnull %4, ptr noundef nonnull @.str.35, ptr noundef nonnull %20, ptr noundef nonnull %21, ptr noundef nonnull %22, ptr noundef nonnull %23, ptr noundef nonnull %24, ptr noundef nonnull %3) #13
  %.not4 = icmp eq i32 %25, 6
  br i1 %.not4, label %26, label %37

26:                                               ; preds = %.loopexit
  %27 = load i32, ptr %20, align 4, !tbaa !103
  %28 = add nsw i32 %27, -1900
  store i32 %28, ptr %20, align 4, !tbaa !103
  %29 = load i32, ptr %21, align 8, !tbaa !105
  %30 = add nsw i32 %29, -1
  store i32 %30, ptr %21, align 8, !tbaa !105
  %31 = getelementptr inbounds nuw i8, ptr %3, i64 32
  store i32 -1, ptr %31, align 8, !tbaa !106
  %32 = call i64 @mktime(ptr noundef nonnull %3) #13
  %33 = icmp sgt i64 %32, 0
  br i1 %33, label %34, label %37

34:                                               ; preds = %26
  %35 = call i64 @mktime(ptr noundef nonnull %3) #13
  %36 = getelementptr inbounds nuw i8, ptr %0, i64 192568
  store i64 %35, ptr %36, align 8, !tbaa !85
  br label %37

37:                                               ; preds = %26, %34, %.loopexit
  call void @llvm.lifetime.end.p0(i64 20, ptr nonnull %4) #13
  call void @llvm.lifetime.end.p0(i64 56, ptr nonnull %3) #13
  ret void
}